; Function Attrs: mustprogress nounwind uwtable
define dso_local noundef i64 @_ZN4node6crypto14GroupOrderSizeERKNS0_14ManagedEVPPKeyE(ptr noundef nonnull align 8 dereferenceable(32) %key) local_unnamed_addr #3 {
entry:
  %call = tail call noundef ptr @_ZNK4node6crypto14ManagedEVPPKey3getEv(ptr noundef nonnull align 8 dereferenceable(32) %key) #22
  %call1 = tail call ptr @EVP_PKEY_get0_EC_KEY(ptr noundef %call) #22
  %cmp.not = icmp eq ptr %call1, null
  br i1 %cmp.not, label %do.body4, label %do.end5

do.body4:                                         ; preds = %entry
  tail call void @_ZN4node6AssertERKNS_13AssertionInfoE(ptr noundef nonnull align 8 dereferenceable(24) @_ZZN4node6crypto14GroupOrderSizeERKNS0_14ManagedEVPPKeyEE4args) #22
  tail call void @abort() #24
  unreachable

do.end5:                                          ; preds = %entry
  %call6 = tail call ptr @EC_KEY_get0_group(ptr noundef nonnull %call1) #22
  %call7 = tail call ptr @BN_new() #22
  %call10 = tail call i32 @EC_GROUP_get_order(ptr noundef %call6, ptr noundef %call7, ptr noundef null) #22
  %tobool.not = icmp eq i32 %call10, 0
  br i1 %tobool.not, label %do.body15, label %do.end19

do.body15:                                        ; preds = %do.end5
  tail call void @_ZN4node6AssertERKNS_13AssertionInfoE(ptr noundef nonnull align 8 dereferenceable(24) @_ZZN4node6crypto14GroupOrderSizeERKNS0_14ManagedEVPPKeyEE4args_0) #22
  tail call void @abort() #24
  unreachable

do.end19:                                         ; preds = %do.end5
  %call21 = tail call i32 @BN_num_bits(ptr noundef %call7) #22
  %cmp.not.i = icmp eq ptr %call7, null
  br i1 %cmp.not.i, label %_ZNSt10unique_ptrI9bignum_stN4node15FunctionDeleterIS0_XadL_Z7BN_freeEEEEED2Ev.exit, label %if.then.i

if.then.i:                                        ; preds = %do.end19
  tail call void @BN_free(ptr noundef nonnull %call7) #22
  br label %_ZNSt10unique_ptrI9bignum_stN4node15FunctionDeleterIS0_XadL_Z7BN_freeEEEEED2Ev.exit

_ZNSt10unique_ptrI9bignum_stN4node15FunctionDeleterIS0_XadL_Z7BN_freeEEEEED2Ev.exit: ; preds = %do.end19, %if.then.i
  %add = add nsw i32 %call21, 7
  %div = sdiv i32 %add, 8
  %conv = sext i32 %div to i64
  ret i64 %conv
}